target datalayout = "e-m:e-p270:32:32-p271:32:32-p272:64:64-i64:64-i128:128-f80:128-n8:16:32:64-S128"
target triple = "x86_64-unknown-linux-gnu"

%"class.Assimp::MDLImporter" = type <{ %"class.Assimp::BaseImporter", i32, [4 x i8], %"class.std::__cxx11::basic_string", ptr, i32, [4 x i8], ptr, ptr, i32, %"struct.Assimp::MDL::HalfLife::HL1ImportSettings", [2 x i8] }>
%"class.Assimp::BaseImporter" = type { ptr, double, double, %"class.std::__cxx11::basic_string", %"class.std::__exception_ptr::exception_ptr", ptr }
%"class.std::__exception_ptr::exception_ptr" = type { ptr }
%"class.std::__cxx11::basic_string" = type { %"struct.std::__cxx11::basic_string<char>::_Alloc_hider", i64, %union.anon }
%"struct.std::__cxx11::basic_string<char>::_Alloc_hider" = type { ptr }
%union.anon = type { i64, [8 x i8] }
%"struct.Assimp::MDL::HalfLife::HL1ImportSettings" = type { i8, i8, i8, i8, i8, i8, i8, i8, i8, i8 }
%class.aiMatrix4x4t = type { float, float, float, float, float, float, float, float, float, float, float, float, float, float, float, float }
%struct.aiString = type { i32, [1024 x i8] }
%struct.aiNode = type { %struct.aiString, %class.aiMatrix4x4t, ptr, i32, ptr, i32, ptr, ptr }
%class.aiVector3t = type { float, float, float }
%"struct.Assimp::MDL::Header_MDL7" = type { [4 x i8], i32, i32, i32, i32, i32, i32, i16, i16, i16, i16, i16, i16, i16, i16, i16, i16 }
%"struct.Assimp::MDL::IntBone_MDL7" = type { %struct.aiBone, i64, %class.aiVector3t, %"class.std::vector.7", %"class.std::vector.7", %"class.std::vector.12" }
%struct.aiBone = type { %struct.aiString, i32, ptr, ptr, ptr, %class.aiMatrix4x4t }
%"class.std::vector.7" = type { %"struct.std::_Vector_base.8" }
%"struct.std::_Vector_base.8" = type { %"struct.std::_Vector_base<aiVectorKey, std::allocator<aiVectorKey>>::_Vector_impl" }
%"struct.std::_Vector_base<aiVectorKey, std::allocator<aiVectorKey>>::_Vector_impl" = type { %"struct.std::_Vector_base<aiVectorKey, std::allocator<aiVectorKey>>::_Vector_impl_data" }
%"struct.std::_Vector_base<aiVectorKey, std::allocator<aiVectorKey>>::_Vector_impl_data" = type { ptr, ptr, ptr }
%"class.std::vector.12" = type { %"struct.std::_Vector_base.13" }
%"struct.std::_Vector_base.13" = type { %"struct.std::_Vector_base<aiQuatKey, std::allocator<aiQuatKey>>::_Vector_impl" }
%"struct.std::_Vector_base<aiQuatKey, std::allocator<aiQuatKey>>::_Vector_impl" = type { %"struct.std::_Vector_base<aiQuatKey, std::allocator<aiQuatKey>>::_Vector_impl_data" }
%"struct.std::_Vector_base<aiQuatKey, std::allocator<aiQuatKey>>::_Vector_impl_data" = type { ptr, ptr, ptr }

; Function Attrs: mustprogress nounwind uwtable
define linkonce_odr hidden noundef nonnull align 4 dereferenceable(1028) ptr @_ZN8aiStringaSERKS_(ptr noundef nonnull align 4 dereferenceable(1028) %this, ptr noundef nonnull align 4 dereferenceable(1028) %rOther) #0 comdat align 2 {
entry:
  %retval = alloca ptr, align 8
  %this.addr = alloca ptr, align 8
  %rOther.addr = alloca ptr, align 8
  store ptr %this, ptr %this.addr, align 8
  store ptr %rOther, ptr %rOther.addr, align 8
  %this1 = load ptr, ptr %this.addr, align 8
  %0 = load ptr, ptr %rOther.addr, align 8
  %cmp = icmp eq ptr %this1, %0
  br i1 %cmp, label %if.then, label %if.end

if.then:                                          ; preds = %entry
  store ptr %this1, ptr %retval, align 8
  br label %return

if.end:                                           ; preds = %entry
  %1 = load ptr, ptr %rOther.addr, align 8
  %length = getelementptr inbounds %struct.aiString, ptr %1, i32 0, i32 0
  %2 = load i32, ptr %length, align 4
  %length2 = getelementptr inbounds %struct.aiString, ptr %this1, i32 0, i32 0
  store i32 %2, ptr %length2, align 4
  %length3 = getelementptr inbounds %struct.aiString, ptr %this1, i32 0, i32 0
  %3 = load i32, ptr %length3, align 4
  %conv = zext i32 %3 to i64
  %cmp4 = icmp ugt i64 %conv, 1023
  br i1 %cmp4, label %if.then5, label %if.end7

if.then5:                                         ; preds = %if.end
  %length6 = getelementptr inbounds %struct.aiString, ptr %this1, i32 0, i32 0
  store i32 1023, ptr %length6, align 4
  br label %if.end7

if.end7:                                          ; preds = %if.then5, %if.end
  %data = getelementptr inbounds %struct.aiString, ptr %this1, i32 0, i32 1
  %arraydecay = getelementptr inbounds [1024 x i8], ptr %data, i64 0, i64 0
  %4 = load ptr, ptr %rOther.addr, align 8
  %data8 = getelementptr inbounds %struct.aiString, ptr %4, i32 0, i32 1
  %arraydecay9 = getelementptr inbounds [1024 x i8], ptr %data8, i64 0, i64 0
  %length10 = getelementptr inbounds %struct.aiString, ptr %this1, i32 0, i32 0
  %5 = load i32, ptr %length10, align 4
  %conv11 = zext i32 %5 to i64
  call void @llvm.memcpy.p0.p0.i64(ptr align 4 %arraydecay, ptr align 4 %arraydecay9, i64 %conv11, i1 false)
  %data12 = getelementptr inbounds %struct.aiString, ptr %this1, i32 0, i32 1
  %length13 = getelementptr inbounds %struct.aiString, ptr %this1, i32 0, i32 0
  %6 = load i32, ptr %length13, align 4
  %idxprom = zext i32 %6 to i64
  %arrayidx = getelementptr inbounds [1024 x i8], ptr %data12, i64 0, i64 %idxprom
  store i8 0, ptr %arrayidx, align 1
  store ptr %this1, ptr %retval, align 8
  br label %return

return:                                           ; preds = %if.end7, %if.then
  %7 = load ptr, ptr %retval, align 8
  ret ptr %7
}

; Function Attrs: mustprogress nounwind uwtable
define linkonce_odr hidden void @_ZN8aiStringC2ERKS_(ptr noundef nonnull align 4 dereferenceable(1028) %this, ptr noundef nonnull align 4 dereferenceable(1028) %rOther) unnamed_addr #0 comdat align 2 {
entry:
  %this.addr = alloca ptr, align 8
  %rOther.addr = alloca ptr, align 8
  store ptr %this, ptr %this.addr, align 8
  store ptr %rOther, ptr %rOther.addr, align 8
  %this1 = load ptr, ptr %this.addr, align 8
  %length = getelementptr inbounds %struct.aiString, ptr %this1, i32 0, i32 0
  %0 = load ptr, ptr %rOther.addr, align 8
  %length2 = getelementptr inbounds %struct.aiString, ptr %0, i32 0, i32 0
  %1 = load i32, ptr %length2, align 4
  store i32 %1, ptr %length, align 4
  %length3 = getelementptr inbounds %struct.aiString, ptr %this1, i32 0, i32 0
  %2 = load i32, ptr %length3, align 4
  %conv = zext i32 %2 to i64
  %cmp = icmp uge i64 %conv, 1024
  br i1 %cmp, label %cond.true, label %cond.false

cond.true:                                        ; preds = %entry
  br label %cond.end

cond.false:                                       ; preds = %entry
  %length4 = getelementptr inbounds %struct.aiString, ptr %this1, i32 0, i32 0
  %3 = load i32, ptr %length4, align 4
  %conv5 = zext i32 %3 to i64
  br label %cond.end

cond.end:                                         ; preds = %cond.false, %cond.true
  %cond = phi i64 [ 1023, %cond.true ], [ %conv5, %cond.false ]
  %conv6 = trunc i64 %cond to i32
  %length7 = getelementptr inbounds %struct.aiString, ptr %this1, i32 0, i32 0
  store i32 %conv6, ptr %length7, align 4
  %data = getelementptr inbounds %struct.aiString, ptr %this1, i32 0, i32 1
  %arraydecay = getelementptr inbounds [1024 x i8], ptr %data, i64 0, i64 0
  %4 = load ptr, ptr %rOther.addr, align 8
  %data8 = getelementptr inbounds %struct.aiString, ptr %4, i32 0, i32 1
  %arraydecay9 = getelementptr inbounds [1024 x i8], ptr %data8, i64 0, i64 0
  %length10 = getelementptr inbounds %struct.aiString, ptr %this1, i32 0, i32 0
  %5 = load i32, ptr %length10, align 4
  %conv11 = zext i32 %5 to i64
  call void @llvm.memcpy.p0.p0.i64(ptr align 4 %arraydecay, ptr align 4 %arraydecay9, i64 %conv11, i1 false)
  %data12 = getelementptr inbounds %struct.aiString, ptr %this1, i32 0, i32 1
  %length13 = getelementptr inbounds %struct.aiString, ptr %this1, i32 0, i32 0
  %6 = load i32, ptr %length13, align 4
  %idxprom = zext i32 %6 to i64
  %arrayidx = getelementptr inbounds [1024 x i8], ptr %data12, i64 0, i64 %idxprom
  store i8 0, ptr %arrayidx, align 1
  ret void
}

; Function Attrs: mustprogress uwtable
define hidden void @_ZN6Assimp11MDLImporter29AddBonesToNodeGraph_3DGS_MDL7EPPKNS_3MDL12IntBone_MDL7EP6aiNodet(ptr noundef nonnull align 8 dereferenceable(158) %this, ptr noundef %apcBones, ptr noundef %pcParent, i16 noundef zeroext %iParentIndex) #2 align 2 personality ptr @__gxx_personality_v0 {
entry:
  %this.addr = alloca ptr, align 8
  %apcBones.addr = alloca ptr, align 8
  %pcParent.addr = alloca ptr, align 8
  %iParentIndex.addr = alloca i16, align 2
  %pcHeader = alloca ptr, align 8
  %apcBones2 = alloca ptr, align 8
  %i = alloca i32, align 4
  %pcBone = alloca ptr, align 8
  %qq = alloca i32, align 4
  %i6 = alloca i32, align 4
  %pcBone11 = alloca ptr, align 8
  %pcNode = alloca ptr, align 8
  %exn.slot = alloca ptr, align 8
  %ehselector.slot = alloca i32, align 4
  %ref.tmp = alloca %struct.aiString, align 4
  store ptr %this, ptr %this.addr, align 8
  store ptr %apcBones, ptr %apcBones.addr, align 8
  store ptr %pcParent, ptr %pcParent.addr, align 8
  store i16 %iParentIndex, ptr %iParentIndex.addr, align 2
  %this1 = load ptr, ptr %this.addr, align 8
  %mBuffer = getelementptr inbounds %"class.Assimp::MDLImporter", ptr %this1, i32 0, i32 4
  %0 = load ptr, ptr %mBuffer, align 8
  store ptr %0, ptr %pcHeader, align 8
  %1 = load ptr, ptr %apcBones.addr, align 8
  store ptr %1, ptr %apcBones2, align 8
  store i32 0, ptr %i, align 4
  br label %for.cond

for.cond:                                         ; preds = %for.inc, %entry
  %2 = load i32, ptr %i, align 4
  %3 = load ptr, ptr %pcHeader, align 8
  %bones_num = getelementptr inbounds %"struct.Assimp::MDL::Header_MDL7", ptr %3, i32 0, i32 2
  %4 = load i32, ptr %bones_num, align 1
  %cmp = icmp ult i32 %2, %4
  br i1 %cmp, label %for.body, label %for.end

for.body:                                         ; preds = %for.cond
  %5 = load ptr, ptr %apcBones2, align 8
  %incdec.ptr = getelementptr inbounds ptr, ptr %5, i32 1
  store ptr %incdec.ptr, ptr %apcBones2, align 8
  %6 = load ptr, ptr %5, align 8
  store ptr %6, ptr %pcBone, align 8
  %7 = load ptr, ptr %pcBone, align 8
  %iParent = getelementptr inbounds %"struct.Assimp::MDL::IntBone_MDL7", ptr %7, i32 0, i32 1
  %8 = load i64, ptr %iParent, align 8
  %9 = load i16, ptr %iParentIndex.addr, align 2
  %conv = zext i16 %9 to i64
  %cmp2 = icmp eq i64 %8, %conv
  br i1 %cmp2, label %if.then, label %if.end

if.then:                                          ; preds = %for.body
  %10 = load ptr, ptr %pcParent.addr, align 8
  %mNumChildren = getelementptr inbounds %struct.aiNode, ptr %10, i32 0, i32 3
  %11 = load i32, ptr %mNumChildren, align 8
  %inc = add i32 %11, 1
  store i32 %inc, ptr %mNumChildren, align 8
  br label %if.end

if.end:                                           ; preds = %if.then, %for.body
  br label %for.inc

for.inc:                                          ; preds = %if.end
  %12 = load i32, ptr %i, align 4
  %inc3 = add i32 %12, 1
  store i32 %inc3, ptr %i, align 4
  br label %for.cond, !llvm.loop !58

for.end:                                          ; preds = %for.cond
  %13 = load ptr, ptr %pcParent.addr, align 8
  %mNumChildren4 = getelementptr inbounds %struct.aiNode, ptr %13, i32 0, i32 3
  %14 = load i32, ptr %mNumChildren4, align 8
  %conv5 = zext i32 %14 to i64
  %15 = call { i64, i1 } @llvm.umul.with.overflow.i64(i64 %conv5, i64 8)
  %16 = extractvalue { i64, i1 } %15, 1
  %17 = extractvalue { i64, i1 } %15, 0
  %18 = select i1 %16, i64 -1, i64 %17
  %call = call noalias noundef nonnull ptr @_Znam(i64 noundef %18) #18
  %19 = load ptr, ptr %pcParent.addr, align 8
  %mChildren = getelementptr inbounds %struct.aiNode, ptr %19, i32 0, i32 4
  store ptr %call, ptr %mChildren, align 8
  store i32 0, ptr %qq, align 4
  store i32 0, ptr %i6, align 4
  br label %for.cond7

for.cond7:                                        ; preds = %for.inc24, %for.end
  %20 = load i32, ptr %i6, align 4
  %21 = load ptr, ptr %pcHeader, align 8
  %bones_num8 = getelementptr inbounds %"struct.Assimp::MDL::Header_MDL7", ptr %21, i32 0, i32 2
  %22 = load i32, ptr %bones_num8, align 1
  %cmp9 = icmp ult i32 %20, %22
  br i1 %cmp9, label %for.body10, label %for.end26

for.body10:                                       ; preds = %for.cond7
  %23 = load ptr, ptr %apcBones.addr, align 8
  %incdec.ptr12 = getelementptr inbounds ptr, ptr %23, i32 1
  store ptr %incdec.ptr12, ptr %apcBones.addr, align 8
  %24 = load ptr, ptr %23, align 8
  store ptr %24, ptr %pcBone11, align 8
  %25 = load ptr, ptr %pcBone11, align 8
  %iParent13 = getelementptr inbounds %"struct.Assimp::MDL::IntBone_MDL7", ptr %25, i32 0, i32 1
  %26 = load i64, ptr %iParent13, align 8
  %27 = load i16, ptr %iParentIndex.addr, align 2
  %conv14 = zext i16 %27 to i64
  %cmp15 = icmp ne i64 %26, %conv14
  br i1 %cmp15, label %if.then16, label %if.end17

if.then16:                                        ; preds = %for.body10
  br label %for.inc24

if.end17:                                         ; preds = %for.body10
  %call18 = call noalias noundef nonnull ptr @_Znwm(i64 noundef 1144) #18
  invoke void @_ZN6aiNodeC1Ev(ptr noundef nonnull align 8 dereferenceable(1144) %call18)
          to label %invoke.cont unwind label %lpad

invoke.cont:                                      ; preds = %if.end17
  %28 = load ptr, ptr %pcParent.addr, align 8
  %mChildren19 = getelementptr inbounds %struct.aiNode, ptr %28, i32 0, i32 4
  %29 = load ptr, ptr %mChildren19, align 8
  %30 = load i32, ptr %qq, align 4
  %inc20 = add i32 %30, 1
  store i32 %inc20, ptr %qq, align 4
  %idxprom = zext i32 %30 to i64
  %arrayidx = getelementptr inbounds ptr, ptr %29, i64 %idxprom
  store ptr %call18, ptr %arrayidx, align 8
  store ptr %call18, ptr %pcNode, align 8
  %31 = load ptr, ptr %pcBone11, align 8
  %mName = getelementptr inbounds %struct.aiBone, ptr %31, i32 0, i32 0
  call void @_ZN8aiStringC2ERKS_(ptr noundef nonnull align 4 dereferenceable(1028) %ref.tmp, ptr noundef nonnull align 4 dereferenceable(1028) %mName)
  %32 = load ptr, ptr %pcNode, align 8
  %mName21 = getelementptr inbounds %struct.aiNode, ptr %32, i32 0, i32 0
  %call22 = call noundef nonnull align 4 dereferenceable(1028) ptr @_ZN8aiStringaSERKS_(ptr noundef nonnull align 4 dereferenceable(1028) %mName21, ptr noundef nonnull align 4 dereferenceable(1028) %ref.tmp)
  %33 = load ptr, ptr %apcBones.addr, align 8
  %34 = load ptr, ptr %pcNode, align 8
  %35 = load i32, ptr %i6, align 4
  %conv23 = trunc i32 %35 to i16
  call void @_ZN6Assimp11MDLImporter29AddBonesToNodeGraph_3DGS_MDL7EPPKNS_3MDL12IntBone_MDL7EP6aiNodet(ptr noundef nonnull align 8 dereferenceable(158) %this1, ptr noundef %33, ptr noundef %34, i16 noundef zeroext %conv23)
  br label %for.inc24

for.inc24:                                        ; preds = %invoke.cont, %if.then16
  %36 = load i32, ptr %i6, align 4
  %inc25 = add i32 %36, 1
  store i32 %inc25, ptr %i6, align 4
  br label %for.cond7, !llvm.loop !59

lpad:                                             ; preds = %if.end17
  %37 = landingpad { ptr, i32 }
          cleanup
  %38 = extractvalue { ptr, i32 } %37, 0
  store ptr %38, ptr %exn.slot, align 8
  %39 = extractvalue { ptr, i32 } %37, 1
  store i32 %39, ptr %ehselector.slot, align 4
  call void @_ZdlPv(ptr noundef %call18) #19
  br label %eh.resume

for.end26:                                        ; preds = %for.cond7
  ret void

eh.resume:                                        ; preds = %lpad
  %exn = load ptr, ptr %exn.slot, align 8
  %sel = load i32, ptr %ehselector.slot, align 4
  %lpad.val = insertvalue { ptr, i32 } poison, ptr %exn, 0
  %lpad.val27 = insertvalue { ptr, i32 } %lpad.val, i32 %sel, 1
  resume { ptr, i32 } %lpad.val27
}