; Function Attrs: mustprogress uwtable
define hidden void @_ZN6Assimp11MDLImporter29AddBonesToNodeGraph_3DGS_MDL7EPPKNS_3MDL12IntBone_MDL7EP6aiNodet(ptr nocapture noundef nonnull readonly align 8 dereferenceable(158) %this, ptr nocapture noundef readonly %apcBones, ptr nocapture noundef %pcParent, i16 noundef zeroext %iParentIndex) local_unnamed_addr #2 align 2 personality ptr @__gxx_personality_v0 {
entry:
  %ref.tmp = alloca %struct.aiString, align 4
  %mBuffer = getelementptr inbounds i8, ptr %this, i64 112
  %0 = load ptr, ptr %mBuffer, align 8
  %bones_num = getelementptr inbounds i8, ptr %0, i64 8
  %1 = load i32, ptr %bones_num, align 1
  %cmp18.not = icmp eq i32 %1, 0
  br i1 %cmp18.not, label %for.end, label %for.body.lr.ph

for.body.lr.ph:                                   ; preds = %entry
  %conv = zext i16 %iParentIndex to i64
  %mNumChildren = getelementptr inbounds i8, ptr %pcParent, i64 1104
  br label %for.body

for.body:                                         ; preds = %for.body.lr.ph, %for.inc
  %2 = phi i32 [ %1, %for.body.lr.ph ], [ %6, %for.inc ]
  %apcBones2.020 = phi ptr [ %apcBones, %for.body.lr.ph ], [ %incdec.ptr, %for.inc ]
  %i.019 = phi i32 [ 0, %for.body.lr.ph ], [ %inc3, %for.inc ]
  %incdec.ptr = getelementptr inbounds i8, ptr %apcBones2.020, i64 8
  %3 = load ptr, ptr %apcBones2.020, align 8
  %iParent = getelementptr inbounds i8, ptr %3, i64 1120
  %4 = load i64, ptr %iParent, align 8
  %cmp2 = icmp eq i64 %4, %conv
  br i1 %cmp2, label %if.then, label %for.inc

if.then:                                          ; preds = %for.body
  %5 = load i32, ptr %mNumChildren, align 8
  %inc = add i32 %5, 1
  store i32 %inc, ptr %mNumChildren, align 8
  %.pre = load i32, ptr %bones_num, align 1
  br label %for.inc

for.inc:                                          ; preds = %for.body, %if.then
  %6 = phi i32 [ %2, %for.body ], [ %.pre, %if.then ]
  %inc3 = add nuw i32 %i.019, 1
  %cmp = icmp ult i32 %inc3, %6
  br i1 %cmp, label %for.body, label %for.end, !llvm.loop !69

for.end:                                          ; preds = %for.inc, %entry
  %mNumChildren4 = getelementptr inbounds i8, ptr %pcParent, i64 1104
  %7 = load i32, ptr %mNumChildren4, align 8
  %conv5 = zext i32 %7 to i64
  %8 = shl nuw nsw i64 %conv5, 3
  %call = tail call noalias noundef nonnull ptr @_Znam(i64 noundef %8) #26
  %mChildren = getelementptr inbounds i8, ptr %pcParent, i64 1112
  store ptr %call, ptr %mChildren, align 8
  %9 = load i32, ptr %bones_num, align 1
  %cmp924.not = icmp eq i32 %9, 0
  br i1 %cmp924.not, label %for.end26, label %for.body10.lr.ph

for.body10.lr.ph:                                 ; preds = %for.end
  %conv14 = zext i16 %iParentIndex to i64
  %data.i = getelementptr inbounds i8, ptr %ref.tmp, i64 4
  br label %for.body10

for.body10:                                       ; preds = %for.body10.lr.ph, %for.inc24
  %10 = phi i32 [ %9, %for.body10.lr.ph ], [ %15, %for.inc24 ]
  %apcBones.addr.028 = phi ptr [ %apcBones, %for.body10.lr.ph ], [ %incdec.ptr12, %for.inc24 ]
  %qq.027 = phi i32 [ 0, %for.body10.lr.ph ], [ %qq.1, %for.inc24 ]
  %i6.026 = phi i32 [ 0, %for.body10.lr.ph ], [ %inc25, %for.inc24 ]
  %incdec.ptr12 = getelementptr inbounds i8, ptr %apcBones.addr.028, i64 8
  %11 = load ptr, ptr %apcBones.addr.028, align 8
  %iParent13 = getelementptr inbounds i8, ptr %11, i64 1120
  %12 = load i64, ptr %iParent13, align 8
  %cmp15.not = icmp eq i64 %12, %conv14
  br i1 %cmp15.not, label %if.end17, label %for.inc24

if.end17:                                         ; preds = %for.body10
  %call18 = tail call noalias noundef nonnull dereferenceable(1144) ptr @_Znwm(i64 noundef 1144) #26
  invoke void @_ZN6aiNodeC1Ev(ptr noundef nonnull align 8 dereferenceable(1144) %call18)
          to label %invoke.cont unwind label %lpad

invoke.cont:                                      ; preds = %if.end17
  %13 = load ptr, ptr %mChildren, align 8
  %inc20 = add i32 %qq.027, 1
  %idxprom = zext i32 %qq.027 to i64
  %arrayidx = getelementptr inbounds ptr, ptr %13, i64 %idxprom
  store ptr %call18, ptr %arrayidx, align 8
  %14 = load i32, ptr %11, align 4
  %spec.select.i = tail call i32 @llvm.umin.i32(i32 %14, i32 1023)
  %data8.i = getelementptr inbounds i8, ptr %11, i64 4
  %conv11.i = zext nneg i32 %spec.select.i to i64
  call void @llvm.memcpy.p0.p0.i64(ptr nonnull align 4 %data.i, ptr nonnull align 4 %data8.i, i64 %conv11.i, i1 false)
  %arrayidx.i = getelementptr inbounds [1024 x i8], ptr %data.i, i64 0, i64 %conv11.i
  store i8 0, ptr %arrayidx.i, align 1
  store i32 %spec.select.i, ptr %call18, align 4
  %data.i14 = getelementptr inbounds i8, ptr %call18, i64 4
  call void @llvm.memcpy.p0.p0.i64(ptr nonnull align 4 %data.i14, ptr nonnull align 4 %data.i, i64 %conv11.i, i1 false)
  %arrayidx.i17 = getelementptr inbounds [1024 x i8], ptr %data.i14, i64 0, i64 %conv11.i
  store i8 0, ptr %arrayidx.i17, align 1
  %conv23 = trunc i32 %i6.026 to i16
  tail call void @_ZN6Assimp11MDLImporter29AddBonesToNodeGraph_3DGS_MDL7EPPKNS_3MDL12IntBone_MDL7EP6aiNodet(ptr noundef nonnull align 8 dereferenceable(158) %this, ptr noundef nonnull %incdec.ptr12, ptr noundef nonnull %call18, i16 noundef zeroext %conv23)
  %.pre30 = load i32, ptr %bones_num, align 1
  br label %for.inc24

for.inc24:                                        ; preds = %for.body10, %invoke.cont
  %15 = phi i32 [ %10, %for.body10 ], [ %.pre30, %invoke.cont ]
  %qq.1 = phi i32 [ %qq.027, %for.body10 ], [ %inc20, %invoke.cont ]
  %inc25 = add nuw i32 %i6.026, 1
  %cmp9 = icmp ult i32 %inc25, %15
  br i1 %cmp9, label %for.body10, label %for.end26, !llvm.loop !70

lpad:                                             ; preds = %if.end17
  %16 = landingpad { ptr, i32 }
          cleanup
  tail call void @_ZdlPv(ptr noundef nonnull %call18) #27
  resume { ptr, i32 } %16

for.end26:                                        ; preds = %for.inc24, %for.end
  ret void
}